target datalayout = "e-m:e-p270:32:32-p271:32:32-p272:64:64-i64:64-i128:128-f80:128-n8:16:32:64-S128"
target triple = "x86_64-pc-linux-gnu"

; Function Attrs: nounwind uwtable
define internal void @smallfelem_mul(ptr noundef %0, ptr noundef %1, ptr noundef %2) #0 {
  %4 = alloca ptr, align 8
  %5 = alloca ptr, align 8
  %6 = alloca ptr, align 8
  %7 = alloca i128, align 16
  %8 = alloca i64, align 8
  %9 = alloca i64, align 8
  store ptr %0, ptr %4, align 8, !tbaa !32
  store ptr %1, ptr %5, align 8, !tbaa !27
  store ptr %2, ptr %6, align 8, !tbaa !27
  call void @llvm.lifetime.start.p0(i64 16, ptr %7) #6
  call void @llvm.lifetime.start.p0(i64 8, ptr %8) #6
  call void @llvm.lifetime.start.p0(i64 8, ptr %9) #6
  %10 = load ptr, ptr %5, align 8, !tbaa !27
  %11 = getelementptr inbounds i64, ptr %10, i64 0
  %12 = load i64, ptr %11, align 8, !tbaa !17
  %13 = zext i64 %12 to i128
  %14 = load ptr, ptr %6, align 8, !tbaa !27
  %15 = getelementptr inbounds i64, ptr %14, i64 0
  %16 = load i64, ptr %15, align 8, !tbaa !17
  %17 = zext i64 %16 to i128
  %18 = mul i128 %13, %17
  store i128 %18, ptr %7, align 16, !tbaa !41
  %19 = load i128, ptr %7, align 16, !tbaa !41
  %20 = trunc i128 %19 to i64
  store i64 %20, ptr %9, align 8, !tbaa !17
  %21 = load i128, ptr %7, align 16, !tbaa !41
  %22 = lshr i128 %21, 64
  %23 = trunc i128 %22 to i64
  store i64 %23, ptr %8, align 8, !tbaa !17
  %24 = load i64, ptr %9, align 8, !tbaa !17
  %25 = zext i64 %24 to i128
  %26 = load ptr, ptr %4, align 8, !tbaa !32
  %27 = getelementptr inbounds i128, ptr %26, i64 0
  store i128 %25, ptr %27, align 16, !tbaa !41
  %28 = load i64, ptr %8, align 8, !tbaa !17
  %29 = zext i64 %28 to i128
  %30 = load ptr, ptr %4, align 8, !tbaa !32
  %31 = getelementptr inbounds i128, ptr %30, i64 1
  store i128 %29, ptr %31, align 16, !tbaa !41
  %32 = load ptr, ptr %5, align 8, !tbaa !27
  %33 = getelementptr inbounds i64, ptr %32, i64 0
  %34 = load i64, ptr %33, align 8, !tbaa !17
  %35 = zext i64 %34 to i128
  %36 = load ptr, ptr %6, align 8, !tbaa !27
  %37 = getelementptr inbounds i64, ptr %36, i64 1
  %38 = load i64, ptr %37, align 8, !tbaa !17
  %39 = zext i64 %38 to i128
  %40 = mul i128 %35, %39
  store i128 %40, ptr %7, align 16, !tbaa !41
  %41 = load i128, ptr %7, align 16, !tbaa !41
  %42 = trunc i128 %41 to i64
  store i64 %42, ptr %9, align 8, !tbaa !17
  %43 = load i128, ptr %7, align 16, !tbaa !41
  %44 = lshr i128 %43, 64
  %45 = trunc i128 %44 to i64
  store i64 %45, ptr %8, align 8, !tbaa !17
  %46 = load i64, ptr %9, align 8, !tbaa !17
  %47 = zext i64 %46 to i128
  %48 = load ptr, ptr %4, align 8, !tbaa !32
  %49 = getelementptr inbounds i128, ptr %48, i64 1
  %50 = load i128, ptr %49, align 16, !tbaa !41
  %51 = add i128 %50, %47
  store i128 %51, ptr %49, align 16, !tbaa !41
  %52 = load i64, ptr %8, align 8, !tbaa !17
  %53 = zext i64 %52 to i128
  %54 = load ptr, ptr %4, align 8, !tbaa !32
  %55 = getelementptr inbounds i128, ptr %54, i64 2
  store i128 %53, ptr %55, align 16, !tbaa !41
  %56 = load ptr, ptr %5, align 8, !tbaa !27
  %57 = getelementptr inbounds i64, ptr %56, i64 1
  %58 = load i64, ptr %57, align 8, !tbaa !17
  %59 = zext i64 %58 to i128
  %60 = load ptr, ptr %6, align 8, !tbaa !27
  %61 = getelementptr inbounds i64, ptr %60, i64 0
  %62 = load i64, ptr %61, align 8, !tbaa !17
  %63 = zext i64 %62 to i128
  %64 = mul i128 %59, %63
  store i128 %64, ptr %7, align 16, !tbaa !41
  %65 = load i128, ptr %7, align 16, !tbaa !41
  %66 = trunc i128 %65 to i64
  store i64 %66, ptr %9, align 8, !tbaa !17
  %67 = load i128, ptr %7, align 16, !tbaa !41
  %68 = lshr i128 %67, 64
  %69 = trunc i128 %68 to i64
  store i64 %69, ptr %8, align 8, !tbaa !17
  %70 = load i64, ptr %9, align 8, !tbaa !17
  %71 = zext i64 %70 to i128
  %72 = load ptr, ptr %4, align 8, !tbaa !32
  %73 = getelementptr inbounds i128, ptr %72, i64 1
  %74 = load i128, ptr %73, align 16, !tbaa !41
  %75 = add i128 %74, %71
  store i128 %75, ptr %73, align 16, !tbaa !41
  %76 = load i64, ptr %8, align 8, !tbaa !17
  %77 = zext i64 %76 to i128
  %78 = load ptr, ptr %4, align 8, !tbaa !32
  %79 = getelementptr inbounds i128, ptr %78, i64 2
  %80 = load i128, ptr %79, align 16, !tbaa !41
  %81 = add i128 %80, %77
  store i128 %81, ptr %79, align 16, !tbaa !41
  %82 = load ptr, ptr %5, align 8, !tbaa !27
  %83 = getelementptr inbounds i64, ptr %82, i64 0
  %84 = load i64, ptr %83, align 8, !tbaa !17
  %85 = zext i64 %84 to i128
  %86 = load ptr, ptr %6, align 8, !tbaa !27
  %87 = getelementptr inbounds i64, ptr %86, i64 2
  %88 = load i64, ptr %87, align 8, !tbaa !17
  %89 = zext i64 %88 to i128
  %90 = mul i128 %85, %89
  store i128 %90, ptr %7, align 16, !tbaa !41
  %91 = load i128, ptr %7, align 16, !tbaa !41
  %92 = trunc i128 %91 to i64
  store i64 %92, ptr %9, align 8, !tbaa !17
  %93 = load i128, ptr %7, align 16, !tbaa !41
  %94 = lshr i128 %93, 64
  %95 = trunc i128 %94 to i64
  store i64 %95, ptr %8, align 8, !tbaa !17
  %96 = load i64, ptr %9, align 8, !tbaa !17
  %97 = zext i64 %96 to i128
  %98 = load ptr, ptr %4, align 8, !tbaa !32
  %99 = getelementptr inbounds i128, ptr %98, i64 2
  %100 = load i128, ptr %99, align 16, !tbaa !41
  %101 = add i128 %100, %97
  store i128 %101, ptr %99, align 16, !tbaa !41
  %102 = load i64, ptr %8, align 8, !tbaa !17
  %103 = zext i64 %102 to i128
  %104 = load ptr, ptr %4, align 8, !tbaa !32
  %105 = getelementptr inbounds i128, ptr %104, i64 3
  store i128 %103, ptr %105, align 16, !tbaa !41
  %106 = load ptr, ptr %5, align 8, !tbaa !27
  %107 = getelementptr inbounds i64, ptr %106, i64 1
  %108 = load i64, ptr %107, align 8, !tbaa !17
  %109 = zext i64 %108 to i128
  %110 = load ptr, ptr %6, align 8, !tbaa !27
  %111 = getelementptr inbounds i64, ptr %110, i64 1
  %112 = load i64, ptr %111, align 8, !tbaa !17
  %113 = zext i64 %112 to i128
  %114 = mul i128 %109, %113
  store i128 %114, ptr %7, align 16, !tbaa !41
  %115 = load i128, ptr %7, align 16, !tbaa !41
  %116 = trunc i128 %115 to i64
  store i64 %116, ptr %9, align 8, !tbaa !17
  %117 = load i128, ptr %7, align 16, !tbaa !41
  %118 = lshr i128 %117, 64
  %119 = trunc i128 %118 to i64
  store i64 %119, ptr %8, align 8, !tbaa !17
  %120 = load i64, ptr %9, align 8, !tbaa !17
  %121 = zext i64 %120 to i128
  %122 = load ptr, ptr %4, align 8, !tbaa !32
  %123 = getelementptr inbounds i128, ptr %122, i64 2
  %124 = load i128, ptr %123, align 16, !tbaa !41
  %125 = add i128 %124, %121
  store i128 %125, ptr %123, align 16, !tbaa !41
  %126 = load i64, ptr %8, align 8, !tbaa !17
  %127 = zext i64 %126 to i128
  %128 = load ptr, ptr %4, align 8, !tbaa !32
  %129 = getelementptr inbounds i128, ptr %128, i64 3
  %130 = load i128, ptr %129, align 16, !tbaa !41
  %131 = add i128 %130, %127
  store i128 %131, ptr %129, align 16, !tbaa !41
  %132 = load ptr, ptr %5, align 8, !tbaa !27
  %133 = getelementptr inbounds i64, ptr %132, i64 2
  %134 = load i64, ptr %133, align 8, !tbaa !17
  %135 = zext i64 %134 to i128
  %136 = load ptr, ptr %6, align 8, !tbaa !27
  %137 = getelementptr inbounds i64, ptr %136, i64 0
  %138 = load i64, ptr %137, align 8, !tbaa !17
  %139 = zext i64 %138 to i128
  %140 = mul i128 %135, %139
  store i128 %140, ptr %7, align 16, !tbaa !41
  %141 = load i128, ptr %7, align 16, !tbaa !41
  %142 = trunc i128 %141 to i64
  store i64 %142, ptr %9, align 8, !tbaa !17
  %143 = load i128, ptr %7, align 16, !tbaa !41
  %144 = lshr i128 %143, 64
  %145 = trunc i128 %144 to i64
  store i64 %145, ptr %8, align 8, !tbaa !17
  %146 = load i64, ptr %9, align 8, !tbaa !17
  %147 = zext i64 %146 to i128
  %148 = load ptr, ptr %4, align 8, !tbaa !32
  %149 = getelementptr inbounds i128, ptr %148, i64 2
  %150 = load i128, ptr %149, align 16, !tbaa !41
  %151 = add i128 %150, %147
  store i128 %151, ptr %149, align 16, !tbaa !41
  %152 = load i64, ptr %8, align 8, !tbaa !17
  %153 = zext i64 %152 to i128
  %154 = load ptr, ptr %4, align 8, !tbaa !32
  %155 = getelementptr inbounds i128, ptr %154, i64 3
  %156 = load i128, ptr %155, align 16, !tbaa !41
  %157 = add i128 %156, %153
  store i128 %157, ptr %155, align 16, !tbaa !41
  %158 = load ptr, ptr %5, align 8, !tbaa !27
  %159 = getelementptr inbounds i64, ptr %158, i64 0
  %160 = load i64, ptr %159, align 8, !tbaa !17
  %161 = zext i64 %160 to i128
  %162 = load ptr, ptr %6, align 8, !tbaa !27
  %163 = getelementptr inbounds i64, ptr %162, i64 3
  %164 = load i64, ptr %163, align 8, !tbaa !17
  %165 = zext i64 %164 to i128
  %166 = mul i128 %161, %165
  store i128 %166, ptr %7, align 16, !tbaa !41
  %167 = load i128, ptr %7, align 16, !tbaa !41
  %168 = trunc i128 %167 to i64
  store i64 %168, ptr %9, align 8, !tbaa !17
  %169 = load i128, ptr %7, align 16, !tbaa !41
  %170 = lshr i128 %169, 64
  %171 = trunc i128 %170 to i64
  store i64 %171, ptr %8, align 8, !tbaa !17
  %172 = load i64, ptr %9, align 8, !tbaa !17
  %173 = zext i64 %172 to i128
  %174 = load ptr, ptr %4, align 8, !tbaa !32
  %175 = getelementptr inbounds i128, ptr %174, i64 3
  %176 = load i128, ptr %175, align 16, !tbaa !41
  %177 = add i128 %176, %173
  store i128 %177, ptr %175, align 16, !tbaa !41
  %178 = load i64, ptr %8, align 8, !tbaa !17
  %179 = zext i64 %178 to i128
  %180 = load ptr, ptr %4, align 8, !tbaa !32
  %181 = getelementptr inbounds i128, ptr %180, i64 4
  store i128 %179, ptr %181, align 16, !tbaa !41
  %182 = load ptr, ptr %5, align 8, !tbaa !27
  %183 = getelementptr inbounds i64, ptr %182, i64 1
  %184 = load i64, ptr %183, align 8, !tbaa !17
  %185 = zext i64 %184 to i128
  %186 = load ptr, ptr %6, align 8, !tbaa !27
  %187 = getelementptr inbounds i64, ptr %186, i64 2
  %188 = load i64, ptr %187, align 8, !tbaa !17
  %189 = zext i64 %188 to i128
  %190 = mul i128 %185, %189
  store i128 %190, ptr %7, align 16, !tbaa !41
  %191 = load i128, ptr %7, align 16, !tbaa !41
  %192 = trunc i128 %191 to i64
  store i64 %192, ptr %9, align 8, !tbaa !17
  %193 = load i128, ptr %7, align 16, !tbaa !41
  %194 = lshr i128 %193, 64
  %195 = trunc i128 %194 to i64
  store i64 %195, ptr %8, align 8, !tbaa !17
  %196 = load i64, ptr %9, align 8, !tbaa !17
  %197 = zext i64 %196 to i128
  %198 = load ptr, ptr %4, align 8, !tbaa !32
  %199 = getelementptr inbounds i128, ptr %198, i64 3
  %200 = load i128, ptr %199, align 16, !tbaa !41
  %201 = add i128 %200, %197
  store i128 %201, ptr %199, align 16, !tbaa !41
  %202 = load i64, ptr %8, align 8, !tbaa !17
  %203 = zext i64 %202 to i128
  %204 = load ptr, ptr %4, align 8, !tbaa !32
  %205 = getelementptr inbounds i128, ptr %204, i64 4
  %206 = load i128, ptr %205, align 16, !tbaa !41
  %207 = add i128 %206, %203
  store i128 %207, ptr %205, align 16, !tbaa !41
  %208 = load ptr, ptr %5, align 8, !tbaa !27
  %209 = getelementptr inbounds i64, ptr %208, i64 2
  %210 = load i64, ptr %209, align 8, !tbaa !17
  %211 = zext i64 %210 to i128
  %212 = load ptr, ptr %6, align 8, !tbaa !27
  %213 = getelementptr inbounds i64, ptr %212, i64 1
  %214 = load i64, ptr %213, align 8, !tbaa !17
  %215 = zext i64 %214 to i128
  %216 = mul i128 %211, %215
  store i128 %216, ptr %7, align 16, !tbaa !41
  %217 = load i128, ptr %7, align 16, !tbaa !41
  %218 = trunc i128 %217 to i64
  store i64 %218, ptr %9, align 8, !tbaa !17
  %219 = load i128, ptr %7, align 16, !tbaa !41
  %220 = lshr i128 %219, 64
  %221 = trunc i128 %220 to i64
  store i64 %221, ptr %8, align 8, !tbaa !17
  %222 = load i64, ptr %9, align 8, !tbaa !17
  %223 = zext i64 %222 to i128
  %224 = load ptr, ptr %4, align 8, !tbaa !32
  %225 = getelementptr inbounds i128, ptr %224, i64 3
  %226 = load i128, ptr %225, align 16, !tbaa !41
  %227 = add i128 %226, %223
  store i128 %227, ptr %225, align 16, !tbaa !41
  %228 = load i64, ptr %8, align 8, !tbaa !17
  %229 = zext i64 %228 to i128
  %230 = load ptr, ptr %4, align 8, !tbaa !32
  %231 = getelementptr inbounds i128, ptr %230, i64 4
  %232 = load i128, ptr %231, align 16, !tbaa !41
  %233 = add i128 %232, %229
  store i128 %233, ptr %231, align 16, !tbaa !41
  %234 = load ptr, ptr %5, align 8, !tbaa !27
  %235 = getelementptr inbounds i64, ptr %234, i64 3
  %236 = load i64, ptr %235, align 8, !tbaa !17
  %237 = zext i64 %236 to i128
  %238 = load ptr, ptr %6, align 8, !tbaa !27
  %239 = getelementptr inbounds i64, ptr %238, i64 0
  %240 = load i64, ptr %239, align 8, !tbaa !17
  %241 = zext i64 %240 to i128
  %242 = mul i128 %237, %241
  store i128 %242, ptr %7, align 16, !tbaa !41
  %243 = load i128, ptr %7, align 16, !tbaa !41
  %244 = trunc i128 %243 to i64
  store i64 %244, ptr %9, align 8, !tbaa !17
  %245 = load i128, ptr %7, align 16, !tbaa !41
  %246 = lshr i128 %245, 64
  %247 = trunc i128 %246 to i64
  store i64 %247, ptr %8, align 8, !tbaa !17
  %248 = load i64, ptr %9, align 8, !tbaa !17
  %249 = zext i64 %248 to i128
  %250 = load ptr, ptr %4, align 8, !tbaa !32
  %251 = getelementptr inbounds i128, ptr %250, i64 3
  %252 = load i128, ptr %251, align 16, !tbaa !41
  %253 = add i128 %252, %249
  store i128 %253, ptr %251, align 16, !tbaa !41
  %254 = load i64, ptr %8, align 8, !tbaa !17
  %255 = zext i64 %254 to i128
  %256 = load ptr, ptr %4, align 8, !tbaa !32
  %257 = getelementptr inbounds i128, ptr %256, i64 4
  %258 = load i128, ptr %257, align 16, !tbaa !41
  %259 = add i128 %258, %255
  store i128 %259, ptr %257, align 16, !tbaa !41
  %260 = load ptr, ptr %5, align 8, !tbaa !27
  %261 = getelementptr inbounds i64, ptr %260, i64 1
  %262 = load i64, ptr %261, align 8, !tbaa !17
  %263 = zext i64 %262 to i128
  %264 = load ptr, ptr %6, align 8, !tbaa !27
  %265 = getelementptr inbounds i64, ptr %264, i64 3
  %266 = load i64, ptr %265, align 8, !tbaa !17
  %267 = zext i64 %266 to i128
  %268 = mul i128 %263, %267
  store i128 %268, ptr %7, align 16, !tbaa !41
  %269 = load i128, ptr %7, align 16, !tbaa !41
  %270 = trunc i128 %269 to i64
  store i64 %270, ptr %9, align 8, !tbaa !17
  %271 = load i128, ptr %7, align 16, !tbaa !41
  %272 = lshr i128 %271, 64
  %273 = trunc i128 %272 to i64
  store i64 %273, ptr %8, align 8, !tbaa !17
  %274 = load i64, ptr %9, align 8, !tbaa !17
  %275 = zext i64 %274 to i128
  %276 = load ptr, ptr %4, align 8, !tbaa !32
  %277 = getelementptr inbounds i128, ptr %276, i64 4
  %278 = load i128, ptr %277, align 16, !tbaa !41
  %279 = add i128 %278, %275
  store i128 %279, ptr %277, align 16, !tbaa !41
  %280 = load i64, ptr %8, align 8, !tbaa !17
  %281 = zext i64 %280 to i128
  %282 = load ptr, ptr %4, align 8, !tbaa !32
  %283 = getelementptr inbounds i128, ptr %282, i64 5
  store i128 %281, ptr %283, align 16, !tbaa !41
  %284 = load ptr, ptr %5, align 8, !tbaa !27
  %285 = getelementptr inbounds i64, ptr %284, i64 2
  %286 = load i64, ptr %285, align 8, !tbaa !17
  %287 = zext i64 %286 to i128
  %288 = load ptr, ptr %6, align 8, !tbaa !27
  %289 = getelementptr inbounds i64, ptr %288, i64 2
  %290 = load i64, ptr %289, align 8, !tbaa !17
  %291 = zext i64 %290 to i128
  %292 = mul i128 %287, %291
  store i128 %292, ptr %7, align 16, !tbaa !41
  %293 = load i128, ptr %7, align 16, !tbaa !41
  %294 = trunc i128 %293 to i64
  store i64 %294, ptr %9, align 8, !tbaa !17
  %295 = load i128, ptr %7, align 16, !tbaa !41
  %296 = lshr i128 %295, 64
  %297 = trunc i128 %296 to i64
  store i64 %297, ptr %8, align 8, !tbaa !17
  %298 = load i64, ptr %9, align 8, !tbaa !17
  %299 = zext i64 %298 to i128
  %300 = load ptr, ptr %4, align 8, !tbaa !32
  %301 = getelementptr inbounds i128, ptr %300, i64 4
  %302 = load i128, ptr %301, align 16, !tbaa !41
  %303 = add i128 %302, %299
  store i128 %303, ptr %301, align 16, !tbaa !41
  %304 = load i64, ptr %8, align 8, !tbaa !17
  %305 = zext i64 %304 to i128
  %306 = load ptr, ptr %4, align 8, !tbaa !32
  %307 = getelementptr inbounds i128, ptr %306, i64 5
  %308 = load i128, ptr %307, align 16, !tbaa !41
  %309 = add i128 %308, %305
  store i128 %309, ptr %307, align 16, !tbaa !41
  %310 = load ptr, ptr %5, align 8, !tbaa !27
  %311 = getelementptr inbounds i64, ptr %310, i64 3
  %312 = load i64, ptr %311, align 8, !tbaa !17
  %313 = zext i64 %312 to i128
  %314 = load ptr, ptr %6, align 8, !tbaa !27
  %315 = getelementptr inbounds i64, ptr %314, i64 1
  %316 = load i64, ptr %315, align 8, !tbaa !17
  %317 = zext i64 %316 to i128
  %318 = mul i128 %313, %317
  store i128 %318, ptr %7, align 16, !tbaa !41
  %319 = load i128, ptr %7, align 16, !tbaa !41
  %320 = trunc i128 %319 to i64
  store i64 %320, ptr %9, align 8, !tbaa !17
  %321 = load i128, ptr %7, align 16, !tbaa !41
  %322 = lshr i128 %321, 64
  %323 = trunc i128 %322 to i64
  store i64 %323, ptr %8, align 8, !tbaa !17
  %324 = load i64, ptr %9, align 8, !tbaa !17
  %325 = zext i64 %324 to i128
  %326 = load ptr, ptr %4, align 8, !tbaa !32
  %327 = getelementptr inbounds i128, ptr %326, i64 4
  %328 = load i128, ptr %327, align 16, !tbaa !41
  %329 = add i128 %328, %325
  store i128 %329, ptr %327, align 16, !tbaa !41
  %330 = load i64, ptr %8, align 8, !tbaa !17
  %331 = zext i64 %330 to i128
  %332 = load ptr, ptr %4, align 8, !tbaa !32
  %333 = getelementptr inbounds i128, ptr %332, i64 5
  %334 = load i128, ptr %333, align 16, !tbaa !41
  %335 = add i128 %334, %331
  store i128 %335, ptr %333, align 16, !tbaa !41
  %336 = load ptr, ptr %5, align 8, !tbaa !27
  %337 = getelementptr inbounds i64, ptr %336, i64 2
  %338 = load i64, ptr %337, align 8, !tbaa !17
  %339 = zext i64 %338 to i128
  %340 = load ptr, ptr %6, align 8, !tbaa !27
  %341 = getelementptr inbounds i64, ptr %340, i64 3
  %342 = load i64, ptr %341, align 8, !tbaa !17
  %343 = zext i64 %342 to i128
  %344 = mul i128 %339, %343
  store i128 %344, ptr %7, align 16, !tbaa !41
  %345 = load i128, ptr %7, align 16, !tbaa !41
  %346 = trunc i128 %345 to i64
  store i64 %346, ptr %9, align 8, !tbaa !17
  %347 = load i128, ptr %7, align 16, !tbaa !41
  %348 = lshr i128 %347, 64
  %349 = trunc i128 %348 to i64
  store i64 %349, ptr %8, align 8, !tbaa !17
  %350 = load i64, ptr %9, align 8, !tbaa !17
  %351 = zext i64 %350 to i128
  %352 = load ptr, ptr %4, align 8, !tbaa !32
  %353 = getelementptr inbounds i128, ptr %352, i64 5
  %354 = load i128, ptr %353, align 16, !tbaa !41
  %355 = add i128 %354, %351
  store i128 %355, ptr %353, align 16, !tbaa !41
  %356 = load i64, ptr %8, align 8, !tbaa !17
  %357 = zext i64 %356 to i128
  %358 = load ptr, ptr %4, align 8, !tbaa !32
  %359 = getelementptr inbounds i128, ptr %358, i64 6
  store i128 %357, ptr %359, align 16, !tbaa !41
  %360 = load ptr, ptr %5, align 8, !tbaa !27
  %361 = getelementptr inbounds i64, ptr %360, i64 3
  %362 = load i64, ptr %361, align 8, !tbaa !17
  %363 = zext i64 %362 to i128
  %364 = load ptr, ptr %6, align 8, !tbaa !27
  %365 = getelementptr inbounds i64, ptr %364, i64 2
  %366 = load i64, ptr %365, align 8, !tbaa !17
  %367 = zext i64 %366 to i128
  %368 = mul i128 %363, %367
  store i128 %368, ptr %7, align 16, !tbaa !41
  %369 = load i128, ptr %7, align 16, !tbaa !41
  %370 = trunc i128 %369 to i64
  store i64 %370, ptr %9, align 8, !tbaa !17
  %371 = load i128, ptr %7, align 16, !tbaa !41
  %372 = lshr i128 %371, 64
  %373 = trunc i128 %372 to i64
  store i64 %373, ptr %8, align 8, !tbaa !17
  %374 = load i64, ptr %9, align 8, !tbaa !17
  %375 = zext i64 %374 to i128
  %376 = load ptr, ptr %4, align 8, !tbaa !32
  %377 = getelementptr inbounds i128, ptr %376, i64 5
  %378 = load i128, ptr %377, align 16, !tbaa !41
  %379 = add i128 %378, %375
  store i128 %379, ptr %377, align 16, !tbaa !41
  %380 = load i64, ptr %8, align 8, !tbaa !17
  %381 = zext i64 %380 to i128
  %382 = load ptr, ptr %4, align 8, !tbaa !32
  %383 = getelementptr inbounds i128, ptr %382, i64 6
  %384 = load i128, ptr %383, align 16, !tbaa !41
  %385 = add i128 %384, %381
  store i128 %385, ptr %383, align 16, !tbaa !41
  %386 = load ptr, ptr %5, align 8, !tbaa !27
  %387 = getelementptr inbounds i64, ptr %386, i64 3
  %388 = load i64, ptr %387, align 8, !tbaa !17
  %389 = zext i64 %388 to i128
  %390 = load ptr, ptr %6, align 8, !tbaa !27
  %391 = getelementptr inbounds i64, ptr %390, i64 3
  %392 = load i64, ptr %391, align 8, !tbaa !17
  %393 = zext i64 %392 to i128
  %394 = mul i128 %389, %393
  store i128 %394, ptr %7, align 16, !tbaa !41
  %395 = load i128, ptr %7, align 16, !tbaa !41
  %396 = trunc i128 %395 to i64
  store i64 %396, ptr %9, align 8, !tbaa !17
  %397 = load i128, ptr %7, align 16, !tbaa !41
  %398 = lshr i128 %397, 64
  %399 = trunc i128 %398 to i64
  store i64 %399, ptr %8, align 8, !tbaa !17
  %400 = load i64, ptr %9, align 8, !tbaa !17
  %401 = zext i64 %400 to i128
  %402 = load ptr, ptr %4, align 8, !tbaa !32
  %403 = getelementptr inbounds i128, ptr %402, i64 6
  %404 = load i128, ptr %403, align 16, !tbaa !41
  %405 = add i128 %404, %401
  store i128 %405, ptr %403, align 16, !tbaa !41
  %406 = load i64, ptr %8, align 8, !tbaa !17
  %407 = zext i64 %406 to i128
  %408 = load ptr, ptr %4, align 8, !tbaa !32
  %409 = getelementptr inbounds i128, ptr %408, i64 7
  store i128 %407, ptr %409, align 16, !tbaa !41
  call void @llvm.lifetime.end.p0(i64 8, ptr %9) #6
  call void @llvm.lifetime.end.p0(i64 8, ptr %8) #6
  call void @llvm.lifetime.end.p0(i64 16, ptr %7) #6
  ret void
}