; Function Attrs: mustprogress nofree norecurse nosync nounwind willreturn memory(argmem: readwrite) uwtable
define internal fastcc void @smallfelem_mul(ptr noundef nonnull writeonly captures(none) initializes((0, 128)) %0, ptr noundef nonnull readonly captures(none) %1, ptr noundef nonnull readonly captures(none) %2) unnamed_addr #4 {
  %4 = load i64, ptr %1, align 8, !tbaa !18
  %5 = zext i64 %4 to i128
  %6 = load i64, ptr %2, align 8, !tbaa !18
  %7 = zext i64 %6 to i128
  %8 = mul nuw i128 %7, %5
  %9 = lshr i128 %8, 64
  %10 = and i128 %8, 18446744073709551615
  store i128 %10, ptr %0, align 16, !tbaa !6
  %11 = getelementptr inbounds nuw i8, ptr %0, i64 16
  %12 = getelementptr inbounds nuw i8, ptr %2, i64 8
  %13 = load i64, ptr %12, align 8, !tbaa !18
  %14 = zext i64 %13 to i128
  %15 = mul nuw i128 %14, %5
  %16 = lshr i128 %15, 64
  %17 = and i128 %15, 18446744073709551615
  %18 = add nuw nsw i128 %17, %9
  %19 = getelementptr inbounds nuw i8, ptr %0, i64 32
  %20 = getelementptr inbounds nuw i8, ptr %1, i64 8
  %21 = load i64, ptr %20, align 8, !tbaa !18
  %22 = zext i64 %21 to i128
  %23 = mul nuw i128 %22, %7
  %24 = lshr i128 %23, 64
  %25 = and i128 %23, 18446744073709551615
  %26 = add nuw nsw i128 %25, %18
  store i128 %26, ptr %11, align 16, !tbaa !6
  %27 = add nuw nsw i128 %24, %16
  %28 = getelementptr inbounds nuw i8, ptr %2, i64 16
  %29 = load i64, ptr %28, align 8, !tbaa !18
  %30 = zext i64 %29 to i128
  %31 = mul nuw i128 %30, %5
  %32 = lshr i128 %31, 64
  %33 = and i128 %31, 18446744073709551615
  %34 = add nuw nsw i128 %33, %27
  %35 = getelementptr inbounds nuw i8, ptr %0, i64 48
  %36 = mul nuw i128 %22, %14
  %37 = lshr i128 %36, 64
  %38 = and i128 %36, 18446744073709551615
  %39 = add nuw nsw i128 %34, %38
  %40 = add nuw nsw i128 %32, %37
  %41 = getelementptr inbounds nuw i8, ptr %1, i64 16
  %42 = load i64, ptr %41, align 8, !tbaa !18
  %43 = zext i64 %42 to i128
  %44 = mul nuw i128 %43, %7
  %45 = lshr i128 %44, 64
  %46 = and i128 %44, 18446744073709551615
  %47 = add nuw nsw i128 %46, %39
  store i128 %47, ptr %19, align 16, !tbaa !6
  %48 = add nuw nsw i128 %45, %40
  %49 = getelementptr inbounds nuw i8, ptr %2, i64 24
  %50 = load i64, ptr %49, align 8, !tbaa !18
  %51 = zext i64 %50 to i128
  %52 = mul nuw i128 %51, %5
  %53 = lshr i128 %52, 64
  %54 = and i128 %52, 18446744073709551615
  %55 = add nuw nsw i128 %54, %48
  %56 = getelementptr inbounds nuw i8, ptr %0, i64 64
  %57 = mul nuw i128 %30, %22
  %58 = lshr i128 %57, 64
  %59 = and i128 %57, 18446744073709551615
  %60 = add nuw nsw i128 %55, %59
  %61 = add nuw nsw i128 %53, %58
  %62 = mul nuw i128 %43, %14
  %63 = lshr i128 %62, 64
  %64 = and i128 %62, 18446744073709551615
  %65 = add nuw nsw i128 %60, %64
  %66 = add nuw nsw i128 %61, %63
  %67 = getelementptr inbounds nuw i8, ptr %1, i64 24
  %68 = load i64, ptr %67, align 8, !tbaa !18
  %69 = zext i64 %68 to i128
  %70 = mul nuw i128 %69, %7
  %71 = lshr i128 %70, 64
  %72 = and i128 %70, 18446744073709551615
  %73 = add nuw nsw i128 %72, %65
  store i128 %73, ptr %35, align 16, !tbaa !6
  %74 = mul nuw i128 %51, %22
  %75 = lshr i128 %74, 64
  %76 = and i128 %74, 18446744073709551615
  %77 = add nuw nsw i128 %66, %76
  %78 = add nuw nsw i128 %77, %71
  %79 = getelementptr inbounds nuw i8, ptr %0, i64 80
  %80 = mul nuw i128 %43, %30
  %81 = lshr i128 %80, 64
  %82 = and i128 %80, 18446744073709551615
  %83 = add nuw nsw i128 %78, %82
  %84 = add nuw nsw i128 %75, %81
  %85 = mul nuw i128 %69, %14
  %86 = lshr i128 %85, 64
  %87 = and i128 %85, 18446744073709551615
  %88 = add nuw nsw i128 %83, %87
  store i128 %88, ptr %56, align 16, !tbaa !6
  %89 = mul nuw i128 %51, %43
  %90 = lshr i128 %89, 64
  %91 = and i128 %89, 18446744073709551615
  %92 = add nuw nsw i128 %84, %91
  %93 = add nuw nsw i128 %92, %86
  %94 = getelementptr inbounds nuw i8, ptr %0, i64 96
  %95 = mul nuw i128 %69, %30
  %96 = lshr i128 %95, 64
  %97 = and i128 %95, 18446744073709551615
  %98 = add nuw nsw i128 %93, %97
  store i128 %98, ptr %79, align 16, !tbaa !6
  %99 = add nuw nsw i128 %96, %90
  %100 = mul nuw i128 %69, %51
  %101 = lshr i128 %100, 64
  %102 = and i128 %100, 18446744073709551615
  %103 = add nuw nsw i128 %99, %102
  store i128 %103, ptr %94, align 16, !tbaa !6
  %104 = getelementptr inbounds nuw i8, ptr %0, i64 112
  store i128 %101, ptr %104, align 16, !tbaa !6
  ret void
}